; Function Attrs: mustprogress nofree norecurse nosync nounwind willreturn memory(read, argmem: readwrite, inaccessiblemem: none) uwtable
define internal noundef i32 @config_output(ptr noundef captures(none) initializes((96, 104), (264, 272)) %0) #10 {
  %2 = load ptr, ptr %0, align 8, !tbaa !188
  %3 = getelementptr inbounds nuw i8, ptr %2, i64 72
  %4 = load ptr, ptr %3, align 8, !tbaa !4
  %5 = getelementptr inbounds nuw i8, ptr %0, i64 264
  %6 = getelementptr inbounds nuw i8, ptr %4, i64 248
  %7 = load i64, ptr %6, align 8
  store i64 %7, ptr %5, align 8
  %8 = getelementptr inbounds nuw i8, ptr %0, i64 96
  %.sroa.01.0.insert.insert.i = tail call i64 @llvm.fshl.i64(i64 %7, i64 %7, i64 32)
  store i64 %.sroa.01.0.insert.insert.i, ptr %8, align 8
  ret i32 0
}